#include <math.h>
#include <stdio.h>
#include <stdlib.h>
#include <string.h>
#include <iostream>
using namespace std;

int main()
{
	int a, b, c, d, e;
	for (a = 1; a <= 5; a++)
			for (b = 2; b <= 5; b++)
					for (c = 1; c <= 5; c++)
							for (d = 1; d <= 5; d++)
									for (e = 1; e <= 5; e++)
										if ((a != b) && (a != c) && (a != d) &&
											(a != e) && (b != c) && (b != d) &&
											(b != e) && (c != d) && (c != e) &&
											(d != e) && (e != 2) && (e != 3))
										{
											if (((e == 1) == ((a == 2) || (a == 1))) && ((a == 5) == ((c == 1) || (c == 2))) &&
												((c != 1) == ((d == 1) || (d == 2))) && (d != 1) && (e != 1))
												cout << a << " " << b << " " << c << " " << d << " " << e<< endl;
										}
	return 0;
}