; ModuleID = '41/977.cpp'
source_filename = "41/977.cpp"
target datalayout = "e-m:e-p270:32:32-p271:32:32-p272:64:64-i64:64-f80:128-n8:16:32:64-S128"
target triple = "x86_64-pc-linux-gnu"

%"class.std::ios_base::Init" = type { i8 }
%"class.std::basic_ostream" = type { i32 (...)**, %"class.std::basic_ios" }
%"class.std::basic_ios" = type { %"class.std::ios_base", %"class.std::basic_ostream"*, i8, i8, %"class.std::basic_streambuf"*, %"class.std::ctype"*, %"class.std::num_put"*, %"class.std::num_get"* }
%"class.std::ios_base" = type { i32 (...)**, i64, i64, i32, i32, i32, %"struct.std::ios_base::_Callback_list"*, %"struct.std::ios_base::_Words", [8 x %"struct.std::ios_base::_Words"], i32, %"struct.std::ios_base::_Words"*, %"class.std::locale" }
%"struct.std::ios_base::_Callback_list" = type { %"struct.std::ios_base::_Callback_list"*, void (i32, %"class.std::ios_base"*, i32)*, i32, i32 }
%"struct.std::ios_base::_Words" = type { i8*, i64 }
%"class.std::locale" = type { %"class.std::locale::_Impl"* }
%"class.std::locale::_Impl" = type { i32, %"class.std::locale::facet"**, i64, %"class.std::locale::facet"**, i8** }
%"class.std::locale::facet" = type <{ i32 (...)**, i32, [4 x i8] }>
%"class.std::basic_streambuf" = type { i32 (...)**, i8*, i8*, i8*, i8*, i8*, i8*, %"class.std::locale" }
%"class.std::ctype" = type <{ %"class.std::locale::facet.base", [4 x i8], %struct.__locale_struct*, i8, [7 x i8], i32*, i32*, i16*, i8, [256 x i8], [256 x i8], i8, [6 x i8] }>
%"class.std::locale::facet.base" = type <{ i32 (...)**, i32 }>
%struct.__locale_struct = type { [13 x %struct.__locale_data*], i16*, i32*, i32*, [13 x i8*] }
%struct.__locale_data = type opaque
%"class.std::num_put" = type { %"class.std::locale::facet.base", [4 x i8] }
%"class.std::num_get" = type { %"class.std::locale::facet.base", [4 x i8] }

@_ZStL8__ioinit = internal global %"class.std::ios_base::Init" zeroinitializer, align 1
@__dso_handle = external hidden global i8
@_ZSt4cout = external dso_local global %"class.std::basic_ostream", align 8
@.str = private unnamed_addr constant [2 x i8] c" \00", align 1
@llvm.global_ctors = appending global [1 x { i32, void ()*, i8* }] [{ i32, void ()*, i8* } { i32 65535, void ()* @_GLOBAL__sub_I_977.cpp, i8* null }]

; Function Attrs: noinline uwtable
define internal void @__cxx_global_var_init() #0 section ".text.startup" {
  call void @_ZNSt8ios_base4InitC1Ev(%"class.std::ios_base::Init"* @_ZStL8__ioinit)
  %1 = call i32 @__cxa_atexit(void (i8*)* bitcast (void (%"class.std::ios_base::Init"*)* @_ZNSt8ios_base4InitD1Ev to void (i8*)*), i8* getelementptr inbounds (%"class.std::ios_base::Init", %"class.std::ios_base::Init"* @_ZStL8__ioinit, i32 0, i32 0), i8* @__dso_handle) #3
  ret void
}

declare dso_local void @_ZNSt8ios_base4InitC1Ev(%"class.std::ios_base::Init"*) unnamed_addr #1

; Function Attrs: nounwind
declare dso_local void @_ZNSt8ios_base4InitD1Ev(%"class.std::ios_base::Init"*) unnamed_addr #2

; Function Attrs: nounwind
declare dso_local i32 @__cxa_atexit(void (i8*)*, i8*, i8*) #3

; Function Attrs: noinline norecurse uwtable
define dso_local i32 @main() #4 {
  %1 = alloca i32, align 4
  %2 = alloca i32, align 4
  %3 = alloca i32, align 4
  %4 = alloca i32, align 4
  %5 = alloca i32, align 4
  %6 = alloca i32, align 4
  store i32 0, i32* %1, align 4
  store i32 1, i32* %2, align 4
  br label %7

7:                                                ; preds = %151, %0
  %8 = load i32, i32* %2, align 4
  %9 = icmp sle i32 %8, 5
  br i1 %9, label %10, label %154

10:                                               ; preds = %7
  store i32 2, i32* %3, align 4
  br label %11

11:                                               ; preds = %147, %10
  %12 = load i32, i32* %3, align 4
  %13 = icmp sle i32 %12, 5
  br i1 %13, label %14, label %150

14:                                               ; preds = %11
  store i32 1, i32* %4, align 4
  br label %15

15:                                               ; preds = %143, %14
  %16 = load i32, i32* %4, align 4
  %17 = icmp sle i32 %16, 5
  br i1 %17, label %18, label %146

18:                                               ; preds = %15
  store i32 1, i32* %5, align 4
  br label %19

19:                                               ; preds = %139, %18
  %20 = load i32, i32* %5, align 4
  %21 = icmp sle i32 %20, 5
  br i1 %21, label %22, label %142

22:                                               ; preds = %19
  store i32 1, i32* %6, align 4
  br label %23

23:                                               ; preds = %135, %22
  %24 = load i32, i32* %6, align 4
  %25 = icmp sle i32 %24, 5
  br i1 %25, label %26, label %138

26:                                               ; preds = %23
  %27 = load i32, i32* %2, align 4
  %28 = load i32, i32* %3, align 4
  %29 = icmp ne i32 %27, %28
  br i1 %29, label %30, label %134

30:                                               ; preds = %26
  %31 = load i32, i32* %2, align 4
  %32 = load i32, i32* %4, align 4
  %33 = icmp ne i32 %31, %32
  br i1 %33, label %34, label %134

34:                                               ; preds = %30
  %35 = load i32, i32* %2, align 4
  %36 = load i32, i32* %5, align 4
  %37 = icmp ne i32 %35, %36
  br i1 %37, label %38, label %134

38:                                               ; preds = %34
  %39 = load i32, i32* %2, align 4
  %40 = load i32, i32* %6, align 4
  %41 = icmp ne i32 %39, %40
  br i1 %41, label %42, label %134

42:                                               ; preds = %38
  %43 = load i32, i32* %3, align 4
  %44 = load i32, i32* %4, align 4
  %45 = icmp ne i32 %43, %44
  br i1 %45, label %46, label %134

46:                                               ; preds = %42
  %47 = load i32, i32* %3, align 4
  %48 = load i32, i32* %5, align 4
  %49 = icmp ne i32 %47, %48
  br i1 %49, label %50, label %134

50:                                               ; preds = %46
  %51 = load i32, i32* %3, align 4
  %52 = load i32, i32* %6, align 4
  %53 = icmp ne i32 %51, %52
  br i1 %53, label %54, label %134

54:                                               ; preds = %50
  %55 = load i32, i32* %4, align 4
  %56 = load i32, i32* %5, align 4
  %57 = icmp ne i32 %55, %56
  br i1 %57, label %58, label %134

58:                                               ; preds = %54
  %59 = load i32, i32* %4, align 4
  %60 = load i32, i32* %6, align 4
  %61 = icmp ne i32 %59, %60
  br i1 %61, label %62, label %134

62:                                               ; preds = %58
  %63 = load i32, i32* %5, align 4
  %64 = load i32, i32* %6, align 4
  %65 = icmp ne i32 %63, %64
  br i1 %65, label %66, label %134

66:                                               ; preds = %62
  %67 = load i32, i32* %6, align 4
  %68 = icmp ne i32 %67, 2
  br i1 %68, label %69, label %134

69:                                               ; preds = %66
  %70 = load i32, i32* %6, align 4
  %71 = icmp ne i32 %70, 3
  br i1 %71, label %72, label %134

72:                                               ; preds = %69
  %73 = load i32, i32* %6, align 4
  %74 = icmp eq i32 %73, 1
  %75 = zext i1 %74 to i32
  %76 = load i32, i32* %2, align 4
  %77 = icmp eq i32 %76, 2
  br i1 %77, label %81, label %78

78:                                               ; preds = %72
  %79 = load i32, i32* %2, align 4
  %80 = icmp eq i32 %79, 1
  br label %81

81:                                               ; preds = %78, %72
  %82 = phi i1 [ true, %72 ], [ %80, %78 ]
  %83 = zext i1 %82 to i32
  %84 = icmp eq i32 %75, %83
  br i1 %84, label %85, label %133

85:                                               ; preds = %81
  %86 = load i32, i32* %2, align 4
  %87 = icmp eq i32 %86, 5
  %88 = zext i1 %87 to i32
  %89 = load i32, i32* %4, align 4
  %90 = icmp eq i32 %89, 1
  br i1 %90, label %94, label %91

91:                                               ; preds = %85
  %92 = load i32, i32* %4, align 4
  %93 = icmp eq i32 %92, 2
  br label %94

94:                                               ; preds = %91, %85
  %95 = phi i1 [ true, %85 ], [ %93, %91 ]
  %96 = zext i1 %95 to i32
  %97 = icmp eq i32 %88, %96
  br i1 %97, label %98, label %133

98:                                               ; preds = %94
  %99 = load i32, i32* %4, align 4
  %100 = icmp ne i32 %99, 1
  %101 = zext i1 %100 to i32
  %102 = load i32, i32* %5, align 4
  %103 = icmp eq i32 %102, 1
  br i1 %103, label %107, label %104

104:                                              ; preds = %98
  %105 = load i32, i32* %5, align 4
  %106 = icmp eq i32 %105, 2
  br label %107

107:                                              ; preds = %104, %98
  %108 = phi i1 [ true, %98 ], [ %106, %104 ]
  %109 = zext i1 %108 to i32
  %110 = icmp eq i32 %101, %109
  br i1 %110, label %111, label %133

111:                                              ; preds = %107
  %112 = load i32, i32* %5, align 4
  %113 = icmp ne i32 %112, 1
  br i1 %113, label %114, label %133

114:                                              ; preds = %111
  %115 = load i32, i32* %6, align 4
  %116 = icmp ne i32 %115, 1
  br i1 %116, label %117, label %133

117:                                              ; preds = %114
  %118 = load i32, i32* %2, align 4
  %119 = call dereferenceable(272) %"class.std::basic_ostream"* @_ZNSolsEi(%"class.std::basic_ostream"* @_ZSt4cout, i32 %118)
  %120 = call dereferenceable(272) %"class.std::basic_ostream"* @_ZStlsISt11char_traitsIcEERSt13basic_ostreamIcT_ES5_PKc(%"class.std::basic_ostream"* dereferenceable(272) %119, i8* getelementptr inbounds ([2 x i8], [2 x i8]* @.str, i64 0, i64 0))
  %121 = load i32, i32* %3, align 4
  %122 = call dereferenceable(272) %"class.std::basic_ostream"* @_ZNSolsEi(%"class.std::basic_ostream"* %120, i32 %121)
  %123 = call dereferenceable(272) %"class.std::basic_ostream"* @_ZStlsISt11char_traitsIcEERSt13basic_ostreamIcT_ES5_PKc(%"class.std::basic_ostream"* dereferenceable(272) %122, i8* getelementptr inbounds ([2 x i8], [2 x i8]* @.str, i64 0, i64 0))
  %124 = load i32, i32* %4, align 4
  %125 = call dereferenceable(272) %"class.std::basic_ostream"* @_ZNSolsEi(%"class.std::basic_ostream"* %123, i32 %124)
  %126 = call dereferenceable(272) %"class.std::basic_ostream"* @_ZStlsISt11char_traitsIcEERSt13basic_ostreamIcT_ES5_PKc(%"class.std::basic_ostream"* dereferenceable(272) %125, i8* getelementptr inbounds ([2 x i8], [2 x i8]* @.str, i64 0, i64 0))
  %127 = load i32, i32* %5, align 4
  %128 = call dereferenceable(272) %"class.std::basic_ostream"* @_ZNSolsEi(%"class.std::basic_ostream"* %126, i32 %127)
  %129 = call dereferenceable(272) %"class.std::basic_ostream"* @_ZStlsISt11char_traitsIcEERSt13basic_ostreamIcT_ES5_PKc(%"class.std::basic_ostream"* dereferenceable(272) %128, i8* getelementptr inbounds ([2 x i8], [2 x i8]* @.str, i64 0, i64 0))
  %130 = load i32, i32* %6, align 4
  %131 = call dereferenceable(272) %"class.std::basic_ostream"* @_ZNSolsEi(%"class.std::basic_ostream"* %129, i32 %130)
  %132 = call dereferenceable(272) %"class.std::basic_ostream"* @_ZNSolsEPFRSoS_E(%"class.std::basic_ostream"* %131, %"class.std::basic_ostream"* (%"class.std::basic_ostream"*)* @_ZSt4endlIcSt11char_traitsIcEERSt13basic_ostreamIT_T0_ES6_)
  br label %133

133:                                              ; preds = %117, %114, %111, %107, %94, %81
  br label %134

134:                                              ; preds = %133, %69, %66, %62, %58, %54, %50, %46, %42, %38, %34, %30, %26
  br label %135

135:                                              ; preds = %134
  %136 = load i32, i32* %6, align 4
  %137 = add nsw i32 %136, 1
  store i32 %137, i32* %6, align 4
  br label %23

138:                                              ; preds = %23
  br label %139

139:                                              ; preds = %138
  %140 = load i32, i32* %5, align 4
  %141 = add nsw i32 %140, 1
  store i32 %141, i32* %5, align 4
  br label %19

142:                                              ; preds = %19
  br label %143

143:                                              ; preds = %142
  %144 = load i32, i32* %4, align 4
  %145 = add nsw i32 %144, 1
  store i32 %145, i32* %4, align 4
  br label %15

146:                                              ; preds = %15
  br label %147

147:                                              ; preds = %146
  %148 = load i32, i32* %3, align 4
  %149 = add nsw i32 %148, 1
  store i32 %149, i32* %3, align 4
  br label %11

150:                                              ; preds = %11
  br label %151

151:                                              ; preds = %150
  %152 = load i32, i32* %2, align 4
  %153 = add nsw i32 %152, 1
  store i32 %153, i32* %2, align 4
  br label %7

154:                                              ; preds = %7
  ret i32 0
}

declare dso_local dereferenceable(272) %"class.std::basic_ostream"* @_ZStlsISt11char_traitsIcEERSt13basic_ostreamIcT_ES5_PKc(%"class.std::basic_ostream"* dereferenceable(272), i8*) #1

declare dso_local dereferenceable(272) %"class.std::basic_ostream"* @_ZNSolsEi(%"class.std::basic_ostream"*, i32) #1

declare dso_local dereferenceable(272) %"class.std::basic_ostream"* @_ZNSolsEPFRSoS_E(%"class.std::basic_ostream"*, %"class.std::basic_ostream"* (%"class.std::basic_ostream"*)*) #1

declare dso_local dereferenceable(272) %"class.std::basic_ostream"* @_ZSt4endlIcSt11char_traitsIcEERSt13basic_ostreamIT_T0_ES6_(%"class.std::basic_ostream"* dereferenceable(272)) #1

; Function Attrs: noinline uwtable
define internal void @_GLOBAL__sub_I_977.cpp() #0 section ".text.startup" {
  call void @__cxx_global_var_init()
  ret void
}


!llvm.module.flags = !{!0}
!llvm.ident = !{!1}

!0 = !{i32 1, !"wchar_size", i32 4}
!1 = !{!"clang version 10.0.0-4ubuntu1 "}
